(dp0
(S'00-0.011.0'
p1
I0
tp2
F4.599956621683258
s(S'00-0.21-2.0'
p3
I1
tp4
F0.03869499959667196
s(S'00-0.020.0'
p5
I1
tp6
F4.779596419916501
s(S'000.141.0'
p7
I0
tp8
F2.1003981227013315
s(S'000.113.0'
p9
I0
tp10
F2.209244857096286
s(S'00-0.08-1.0'
p11
I1
tp12
F3.838600974929104
s(S'00-0.15-1.0'
p13
I0
tp14
F2.739590260065324
s(S'00-0.04-3.0'
p15
I1
tp16
F1.189696
s(S'000.072.0'
p17
I0
tp18
F3.437028127783759
s(S'000.140.0'
p19
I0
tp20
F1.0
s(S'000.183.0'
p21
I1
tp22
F0.36000000000000004
s(S'00-0.190.0'
p23
I1
tp24
F2.3040838099460785
s(S'00-0.07-1.0'
p25
I0
tp26
F4.002770509948136
s(S'00-0.05-1.0'
p27
I1
tp28
F4.209157311344041
s(S'00-0.180.0'
p29
I0
tp30
F2.7020946619241877
s(S'00-0.07-3.0'
p31
I0
tp32
F1.3076159475232643
s(S'00-0.05-2.0'
p33
I1
tp34
F3.7268074937189675
s(S'00-0.120.0'
p35
I0
tp36
F2.120180179265642
s(S'00-0.16-0.0'
p37
I1
tp38
F3.333705799374393
s(S'000.11-0.0'
p39
I1
tp40
F1.0
s(S'00-0.07-0.0'
p41
I0
tp42
F4.67042747775651
s(S'00-0.08-3.0'
p43
I1
tp44
F1.4089994299371498
s(S'00-0.14-2.0'
p45
I0
tp46
F2.157876078433326
s(S'00-0.03-0.0'
p47
I0
tp48
F4.6481295966879
s(S'00-0.141.0'
p49
I0
tp50
F1.8519086303547299
s(S'000.00.0'
p51
I1
tp52
F4.67349372616391
s(S'00-0.17-3.0'
p53
I0
tp54
F0.512
s(S'000.08-0.0'
p55
I1
tp56
F2.4320728619237526
s(S'000.13.0'
p57
I1
tp58
F1.7506584191022354
s(S'00-0.052.0'
p59
I0
tp60
F2.2261701524026605
s(S'000.011.0'
p61
I0
tp62
F4.593416285685469
s(S'00-0.12-3.0'
p63
I0
tp64
F2.033128042201919
s(S'00-0.090.0'
p65
I0
tp66
F2.2835600400149874
s(S'00-0.032.0'
p67
I1
tp68
F4.18926684666846
s(S'00-0.18-2.0'
p69
I1
tp70
F1.0312502042423768
s(S'00-0.16-2.0'
p71
I0
tp72
F1.7194075118077645
s(S'000.111.0'
p73
I1
tp74
F3.1934536161010896
s(S'00-0.012.0'
p75
I1
tp76
F4.454004592366185
s(S'000.040.0'
p77
I0
tp78
F1.5790282194216578
s(S'00-0.1-3.0'
p79
I0
tp80
F1.8980797376163216
s(S'00-0.160.0'
p81
I1
tp82
F2.9790525232612253
s(S'00-0.21-2.0'
p83
I0
tp84
F0.0
s(S'00-0.040.0'
p85
I1
tp86
F4.834163743755301
s(S'00-0.21-3.0'
p87
I0
tp88
F0.0
s(S'00-0.21-3.0'
p89
I1
tp90
F0.0
s(S'00-0.19-2.0'
p91
I0
tp92
F0.0
s(S'000.06-1.0'
p93
I1
tp94
F3.504030130408108
s(S'00-0.2-0.0'
p95
I0
tp96
F2.6736150956552347
s(S'000.0-1.0'
p97
I0
tp98
F4.7322903016563584
s(S'00-0.18-0.0'
p99
I0
tp100
F2.0984730934368017
s(S'000.071.0'
p101
I0
tp102
F3.6702772303246567
s(S'00-0.17-2.0'
p103
I1
tp104
F0.988998804575925
s(S'00-0.19-3.0'
p105
I0
tp106
F0.0
s(S'00-0.13-0.0'
p107
I1
tp108
F3.338533778461693
s(S'000.070.0'
p109
I1
tp110
F2.8880111132486865
s(S'00-0.161.0'
p111
I0
tp112
F1.7656411136
s(S'00-0.09-3.0'
p113
I0
tp114
F2.0320449942226584
s(S'000.050.0'
p115
I0
tp116
F1.7509480746012716
s(S'00-0.21-1.0'
p117
I1
tp118
F0.0
s(S'00-0.091.0'
p119
I0
tp120
F2.377455524026421
s(S'00-0.110.0'
p121
I1
tp122
F2.115070125940181
s(S'000.091.0'
p123
I1
tp124
F3.388285053967461
s(S'00-0.031.0'
p125
I1
tp126
F4.75930843540821
s(S'00-0.04-0.0'
p127
I0
tp128
F4.738680909047392
s(S'000.05-2.0'
p129
I0
tp130
F3.5611093394358595
s(S'000.133.0'
p131
I1
tp132
F1.6843842787402048
s(S'00-0.13-2.0'
p133
I1
tp134
F2.6025715034305232
s(S'000.22.0'
p135
I1
tp136
F0.0
s(S'00-0.151.0'
p137
I1
tp138
F1.927953893774668
s(S'000.172.0'
p139
I1
tp140
I0
s(S'00-0.04-1.0'
p141
I0
tp142
F4.37345648576764
s(S'00-0.13-1.0'
p143
I1
tp144
F3.044638304598349
s(S'00-0.19-0.0'
p145
I0
tp146
F1.8331312060002787
s(S'000.214.0'
p147
I0
tp148
I0
s(S'000.02-0.0'
p149
I0
tp150
F4.677921395681341
s(S'00-0.23-1.0'
p151
I1
tp152
F1.752080528427702
s(S'00-0.2-1.0'
p153
I0
tp154
F1.228043656297253
s(S'000.07-1.0'
p155
I0
tp156
F2.924192180721255
s(S'000.03-0.0'
p157
I0
tp158
F1.6244466300363227
s(S'000.153.0'
p159
I1
tp160
F1.074842482643093
s(S'00-0.02-2.0'
p161
I0
tp162
F4.260871744721271
s(S'00-0.121.0'
p163
I1
tp164
F2.11341522455661
s(S'00-0.070.0'
p165
I0
tp166
F4.785976271391434
s(S'000.090.0'
p167
I1
tp168
F2.1109432210839385
s(S'000.06-2.0'
p169
I1
tp170
F1.5812192941735308
s(S'00-0.051.0'
p171
I0
tp172
F4.820586833864237
s(S'000.022.0'
p173
I0
tp174
F3.9319383031972044
s(S'00-0.2-2.0'
p175
I0
tp176
F0.0
s(S'000.01-2.0'
p177
I1
tp178
F4.35052354036927
s(S'00-0.2-3.0'
p179
I1
tp180
F0.0
s(S'00-0.111.0'
p181
I1
tp182
F2.088359217686968
s(S'00-0.022.0'
p183
I1
tp184
F4.506859855783186
s(S'00-0.05-0.0'
p185
I0
tp186
F4.7492963706461575
s(S'00-0.24-1.0'
p187
I0
tp188
F1.0
s(S'00-0.28-2.0'
p189
I1
tp190
F1.0
s(S'000.04-2.0'
p191
I1
tp192
F3.726450160583471
s(S'000.0-2.0'
p193
I1
tp194
F4.286360339050429
s(S'000.10.0'
p195
I1
tp196
F2.5183734375851996
s(S'000.08-2.0'
p197
I1
tp198
F1.1600000000000001
s(S'00-0.13-3.0'
p199
I1
tp200
F1.1989512446337411
s(S'000.032.0'
p201
I1
tp202
F4.102056211409533
s(S'00-0.05-3.0'
p203
I1
tp204
F1.0
s(S'00-0.14-1.0'
p205
I0
tp206
F2.7561986962130685
s(S'00-0.042.0'
p207
I1
tp208
F2.5935878925557576
s(S'000.053.0'
p209
I1
tp210
F1.0
s(S'000.010.0'
p211
I1
tp212
F4.75235592487799
s(S'00-0.08-2.0'
p213
I1
tp214
F3.53416362516336
s(S'00-0.12-2.0'
p215
I1
tp216
F2.7382935825741535
s(S'000.073.0'
p217
I1
tp218
F1.2742774369440215
s(S'00-0.00.0'
p219
I1
tp220
F4.758599071616357
s(S'000.23.0'
p221
I1
tp222
F0.0
s(S'00-0.11-1.0'
p223
I1
tp224
F3.4403911960231417
s(S'000.21.0'
p225
I1
tp226
F0.0
s(S'000.020.0'
p227
I0
tp228
F4.658876861011812
s(S'000.031.0'
p229
I0
tp230
F4.161668101595985
s(S'000.041.0'
p231
I1
tp232
F4.100922725727066
s(S'000.192.0'
p233
I0
tp234
F0.36073478533609626
s(S'00-0.0-0.0'
p235
I1
tp236
F4.7611092249170595
s(S'000.09-1.0'
p237
I1
tp238
F1.6471413148526184
s(S'00-0.210.0'
p239
I1
tp240
F2.5470532058334285
s(S'000.021.0'
p241
I0
tp242
F4.153480898817745
s(S'00-0.10.0'
p243
I1
tp244
F2.6960074592062626
s(S'000.213.0'
p245
I1
tp246
F0.0
s(S'000.212.0'
p247
I1
tp248
F0.0
s(S'000.07-0.0'
p249
I1
tp250
F1.8204365628885322
s(S'000.121.0'
p251
I0
tp252
F2.851693107788071
s(S'00-0.19-3.0'
p253
I1
tp254
F0.018550382565025197
s(S'000.05-1.0'
p255
I1
tp256
F4.079156032065889
s(S'00-0.130.0'
p257
I0
tp258
F2.8098389831429498
s(S'00-0.11-0.0'
p259
I0
tp260
F3.4564461922410747
s(S'000.0-0.0'
p261
I1
tp262
F4.7646842918249845
s(S'00-0.03-2.0'
p263
I0
tp264
F4.333779243293289
s(S'00-0.14-0.0'
p265
I1
tp266
F2.9795435832979615
s(S'00-0.050.0'
p267
I1
tp268
F4.8620950425454055
s(S'000.02.0'
p269
I0
tp270
F4.097852187042128
s(S'000.03-1.0'
p271
I0
tp272
F4.62680134519344
s(S'00-0.21-1.0'
p273
I0
tp274
F0.37533039406768814
s(S'000.08-1.0'
p275
I0
tp276
F1.5163750399071043
s(S'000.162.0'
p277
I1
tp278
F1.2752292193024855
s(S'00-0.01-1.0'
p279
I1
tp280
F4.5796155047327645
s(S'00-0.06-2.0'
p281
I0
tp282
F3.6749336380716215
s(S'000.193.0'
p283
I0
tp284
F0.0
s(S'00-0.21-0.0'
p285
I0
tp286
F2.249165466310351
s(S'00-0.01-2.0'
p287
I1
tp288
F4.616206776812667
s(S'000.081.0'
p289
I1
tp290
F3.6631481297625252
s(S'00-0.19-1.0'
p291
I0
tp292
F1.2687485512355197
s(S'000.1-2.0'
p293
I1
tp294
F1.0
s(S'000.172.0'
p295
I0
tp296
F0.9278232444281269
s(S'000.01-0.0'
p297
I1
tp298
F4.662663129868678
s(S'00-0.02-1.0'
p299
I1
tp300
F4.560655047523968
s(S'00-0.06-3.0'
p301
I0
tp302
F2.371618451280151
s(S'000.063.0'
p303
I1
tp304
F1.0
s(S'00-0.170.0'
p305
I0
tp306
F3.1256534068225954
s(S'00-0.09-2.0'
p307
I0
tp308
F3.2982706305019667
s(S'000.214.0'
p309
I1
tp310
I0
s(S'000.11.0'
p311
I0
tp312
F3.249619741015132
s(S'00-0.1-1.0'
p313
I1
tp314
F3.587605623316965
s(S'00-0.21.0'
p315
I1
tp316
F1.1856
s(S'000.173.0'
p317
I0
tp318
F0.7886966799623648
s(S'000.23.0'
p319
I0
tp320
F0.0
s(S'00-0.16-3.0'
p321
I0
tp322
I0
s(S'000.191.0'
p323
I1
tp324
F0.569673728
s(S'000.03-2.0'
p325
I0
tp326
F4.322457552717113
s(S'00-0.06-0.0'
p327
I0
tp328
F4.3774860792962995
s(S'000.132.0'
p329
I1
tp330
F2.0651561996982006
s(S'000.012.0'
p331
I1
tp332
F4.149301498352916
s(S'00-0.15-2.0'
p333
I1
tp334
F1.9312738060300254
s(S'000.09-0.0'
p335
I0
tp336
F2.12275325608804
s(S'000.123.0'
p337
I1
tp338
F1.3861222019873185
s(S'00-0.06-1.0'
p339
I0
tp340
F3.9916596241859086
s(S'00-0.060.0'
p341
I1
tp342
F4.815705800233572
s(S'000.212.0'
p343
I0
tp344
F0.0
s(S'00-0.041.0'
p345
I1
tp346
F4.77696631632741
s(S'000.06-0.0'
p347
I1
tp348
F1.0
s(S'00-0.2-3.0'
p349
I0
tp350
F0.0
s(S'00-0.08-0.0'
p351
I1
tp352
F4.419319145615145
s(S'000.080.0'
p353
I1
tp354
F2.6019150791830064
s(S'000.112.0'
p355
I1
tp356
F2.6114989812401177
s(S'000.130.0'
p357
I0
tp358
F2.6997505571782034
s(S'00-0.02-0.0'
p359
I0
tp360
F4.751497152840755
s(S'00-0.11-2.0'
p361
I0
tp362
F2.727071094771943
s(S'00-0.07-2.0'
p363
I0
tp364
F3.4491148292880554
s(S'00-0.131.0'
p365
I1
tp366
F1.7267978761546083
s(S'000.131.0'
p367
I0
tp368
F2.599170709096449
s(S'000.1-0.0'
p369
I1
tp370
F1.8333621542818115
s(S'000.151.0'
p371
I0
tp372
F1.900557638543927
s(S'000.052.0'
p373
I1
tp374
F3.8551213374664295
s(S'00-0.16-1.0'
p375
I0
tp376
F2.332675131057249
s(S'00-0.12-1.0'
p377
I0
tp378
F3.211966631803918
s(S'000.082.0'
p379
I1
tp380
F3.408794724642349
s(S'00-0.071.0'
p381
I0
tp382
F4.574596832483444
s(S'00-0.03-1.0'
p383
I1
tp384
F4.374806712767492
s(S'00-0.030.0'
p385
I1
tp386
F4.799897540613854
s(S'000.07-2.0'
p387
I1
tp388
F1.7107517362808324
s(S'000.060.0'
p389
I0
tp390
F1.4119444805252046
s(S'00-0.15-3.0'
p391
I0
tp392
F1.7345316502240837
s(S'000.062.0'
p393
I1
tp394
F3.427232622585533
s(S'00-0.081.0'
p395
I1
tp396
F3.6969612925282265
s(S'00-0.12-0.0'
p397
I0
tp398
F3.201955242961751
s(S'00-0.17-1.0'
p399
I1
tp400
F2.2093635638005287
s(S'000.170.0'
p401
I0
tp402
F1.0
s(S'00-0.150.0'
p403
I1
tp404
F2.9427453526087106
s(S'000.04-1.0'
p405
I1
tp406
F4.611282450228417
s(S'00-0.20.0'
p407
I0
tp408
F2.7877067312572876
s(S'000.150.0'
p409
I1
tp410
F1.0
s(S'000.033.0'
p411
I1
tp412
F2.90668005067974
s(S'000.160.0'
p413
I0
tp414
F1.0
s(S'00-0.171.0'
p415
I1
tp416
F2.5022819955732283
s(S'000.181.0'
p417
I1
tp418
F0.8617650984358013
s(S'000.02-1.0'
p419
I1
tp420
F4.787079717994513
s(S'000.171.0'
p421
I0
tp422
F1.1315907902747464
s(S'000.110.0'
p423
I0
tp424
F2.806906506853394
s(S'00-0.0-2.0'
p425
I0
tp426
F4.036128113232578
s(S'00-0.01.0'
p427
I1
tp428
F4.550040158203658
s(S'000.093.0'
p429
I0
tp430
F1.6829626760351775
s(S'000.143.0'
p431
I0
tp432
F1.6149631618159825
s(S'00-0.17-0.0'
p433
I1
tp434
F2.551039850396417
s(S'000.120.0'
p435
I0
tp436
F2.8143196608570746
s(S'000.092.0'
p437
I0
tp438
F3.278083313585832
s(S'000.161.0'
p439
I0
tp440
F1.7926440089924554
s(S'00-0.061.0'
p441
I0
tp442
F4.819114841028367
s(S'00-0.16-3.0'
p443
I1
tp444
F1.0037100765130051
s(S'000.142.0'
p445
I0
tp446
F1.9460717359891437
s(S'00-0.09-1.0'
p447
I0
tp448
F3.793718055521062
s(S'00-0.191.0'
p449
I1
tp450
F2.261382779414211
s(S'00-0.18-1.0'
p451
I1
tp452
F0.9603343701710791
s(S'00-0.181.0'
p453
I1
tp454
F2.1568250538322236
s(S'00-0.2-2.0'
p455
I1
tp456
F0.07919235565881783
s(S'000.193.0'
p457
I1
tp458
F0.0
s(S'00-0.19-2.0'
p459
I1
tp460
F0.31346339664962786
s(S'00-0.080.0'
p461
I0
tp462
F4.373681997066234
s(S'00-0.09-0.0'
p463
I0
tp464
F4.008316454456761
s(S'000.21.0'
p465
I0
tp466
F0.0
s(S'00-0.010.0'
p467
I0
tp468
F4.714296009481541
s(S'000.152.0'
p469
I0
tp470
F1.6990873093045007
s(S'00-0.01-0.0'
p471
I0
tp472
F4.702807012947485
s(S'000.01.0'
p473
I0
tp474
F4.426472154657055
s(S'000.051.0'
p475
I1
tp476
F3.724380194304425
s(S'000.061.0'
p477
I0
tp478
F3.948522646621913
s(S'000.12.0'
p479
I0
tp480
F3.0006143474918154
s(S'000.163.0'
p481
I1
tp482
F0.9947616689473391
s(S'000.173.0'
p483
I1
tp484
I0
s(S'00-0.04-2.0'
p485
I1
tp486
F4.050627412289715
s(S'00-0.0-3.0'
p487
I0
tp488
F1.0
s(S'00-0.18-3.0'
p489
I1
tp490
F0.81568
s(S'000.02-2.0'
p491
I1
tp492
F4.114886993006554
s(S'000.083.0'
p493
I0
tp494
F1.8448115210930776
s(S'000.182.0'
p495
I0
tp496
F0.9821006880600027
s(S'00-0.11.0'
p497
I0
tp498
F2.31037057704356
s(S'00-0.021.0'
p499
I0
tp500
F4.717737010039388
s(S'000.030.0'
p501
I0
tp502
F4.287170450194982
s(S'000.042.0'
p503
I0
tp504
F3.9689570482143366
s(S'00-0.02.0'
p505
I0
tp506
F4.15507105435557
s(S'000.12-0.0'
p507
I1
tp508
F1.9175734398385214
s(S'000.22.0'
p509
I0
tp510
F0.0
s(S'000.122.0'
p511
I1
tp512
F2.3141790319959066
s(S'00-0.140.0'
p513
I0
tp514
F2.564536755261092
s(S'000.043.0'
p515
I0
tp516
F1.0
s(S'00-0.1-2.0'
p517
I0
tp518
F3.115439771979185
s(S'00-0.0-1.0'
p519
I0
tp520
F4.673340910931932
s(S'00-0.15-0.0'
p521
I0
tp522
F3.046945048938931
s(S'00-0.2-1.0'
p523
I1
tp524
I0
s(S'000.01-1.0'
p525
I0
tp526
F4.74506669375723
s(S'00-0.1-0.0'
p527
I1
tp528
F3.6003718263172257
s.